target datalayout = "e-m:e-p270:32:32-p271:32:32-p272:64:64-i64:64-i128:128-f80:128-n8:16:32:64-S128"
target triple = "x86_64-unknown-linux-gnu"

%"struct.node::AssertionInfo" = type { ptr, ptr, ptr }
%"class.v8::LocalBase.3" = type { %"class.v8::IndirectHandleBase" }
%"class.v8::IndirectHandleBase" = type { ptr }
%"class.v8::Local.2" = type { %"class.v8::LocalBase.3" }
%"class.std::_Function_base" = type { %"union.std::_Any_data", ptr }
%"union.std::_Any_data" = type { %"union.std::_Nocopy_types" }
%"union.std::_Nocopy_types" = type { { i64, i64 } }
%"class.std::function.233" = type { %"class.std::_Function_base", ptr }
%"class.v8::MaybeLocal" = type { %"class.v8::Local.2" }
%"class.std::basic_string_view" = type { i64, ptr }
%class.anon = type { ptr, ptr }

@_ZZN4node15LoadEnvironmentEPNS_11EnvironmentESt17basic_string_viewIcSt11char_traitsIcEEE4args = internal constant %"struct.node::AssertionInfo" { ptr @.str.25, ptr @.str.26, ptr @.str.27 }, align 8

; Function Attrs: mustprogress nounwind uwtable
define linkonce_odr dso_local noundef zeroext i1 @_ZNKSt14_Function_base8_M_emptyEv(ptr noundef nonnull align 8 dereferenceable(24) %this) #4 comdat align 2 {
entry:
  %this.addr = alloca ptr, align 8
  store ptr %this, ptr %this.addr, align 8
  %this1 = load ptr, ptr %this.addr, align 8
  %_M_manager = getelementptr inbounds %"class.std::_Function_base", ptr %this1, i32 0, i32 1
  %0 = load ptr, ptr %_M_manager, align 8
  %tobool = icmp ne ptr %0, null
  %lnot = xor i1 %tobool, true
  ret i1 %lnot
}

; Function Attrs: mustprogress nounwind uwtable
define linkonce_odr dso_local noundef ptr @_ZNSt9_Any_data9_M_accessEv(ptr noundef nonnull align 8 dereferenceable(16) %this) #4 comdat align 2 {
entry:
  %this.addr = alloca ptr, align 8
  store ptr %this, ptr %this.addr, align 8
  %this1 = load ptr, ptr %this.addr, align 8
  %arrayidx = getelementptr inbounds [16 x i8], ptr %this1, i64 0, i64 0
  ret ptr %arrayidx
}

; Function Attrs: mustprogress nounwind uwtable
define linkonce_odr dso_local noundef zeroext i1 @_ZNKSt8functionIFN2v810MaybeLocalINS0_5ValueEEERKN4node26StartExecutionCallbackInfoEEEcvbEv(ptr noundef nonnull align 8 dereferenceable(32) %this) #4 comdat align 2 {
entry:
  %this.addr = alloca ptr, align 8
  store ptr %this, ptr %this.addr, align 8
  %this1 = load ptr, ptr %this.addr, align 8
  %call = call noundef zeroext i1 @_ZNKSt14_Function_base8_M_emptyEv(ptr noundef nonnull align 8 dereferenceable(24) %this1)
  %lnot = xor i1 %call, true
  ret i1 %lnot
}

; Function Attrs: mustprogress nounwind uwtable
define internal void @"_ZNSt14_Function_base13_Base_managerIZN4node15LoadEnvironmentEPNS1_11EnvironmentESt17basic_string_viewIcSt11char_traitsIcEEE3$_0E9_M_createIS8_EEvRSt9_Any_dataOT_St17integral_constantIbLb1EE"(ptr noundef nonnull align 8 dereferenceable(16) %__dest, ptr noundef nonnull align 8 dereferenceable(16) %__f) #4 align 2 {
entry:
  %__dest.addr = alloca ptr, align 8
  %__f.addr = alloca ptr, align 8
  store ptr %__dest, ptr %__dest.addr, align 8
  store ptr %__f, ptr %__f.addr, align 8
  %0 = load ptr, ptr %__dest.addr, align 8
  %call = call noundef ptr @_ZNSt9_Any_data9_M_accessEv(ptr noundef nonnull align 8 dereferenceable(16) %0) #3
  %1 = load ptr, ptr %__f.addr, align 8
  call void @llvm.memcpy.p0.p0.i64(ptr align 8 %call, ptr align 8 %1, i64 16, i1 false)
  ret void
}

; Function Attrs: mustprogress nounwind uwtable
define linkonce_odr dso_local void @_ZNSt14_Function_baseD2Ev(ptr noundef nonnull align 8 dereferenceable(24) %this) unnamed_addr #4 comdat align 2 {
entry:
  %this.addr = alloca ptr, align 8
  store ptr %this, ptr %this.addr, align 8
  %this1 = load ptr, ptr %this.addr, align 8
  %_M_manager = getelementptr inbounds %"class.std::_Function_base", ptr %this1, i32 0, i32 1
  %0 = load ptr, ptr %_M_manager, align 8
  %tobool = icmp ne ptr %0, null
  br i1 %tobool, label %if.then, label %if.end

if.then:                                          ; preds = %entry
  %_M_manager2 = getelementptr inbounds %"class.std::_Function_base", ptr %this1, i32 0, i32 1
  %1 = load ptr, ptr %_M_manager2, align 8
  %_M_functor = getelementptr inbounds %"class.std::_Function_base", ptr %this1, i32 0, i32 0
  %_M_functor3 = getelementptr inbounds %"class.std::_Function_base", ptr %this1, i32 0, i32 0
  %call = call noundef zeroext i1 %1(ptr noundef nonnull align 8 dereferenceable(16) %_M_functor, ptr noundef nonnull align 8 dereferenceable(16) %_M_functor3, i32 noundef 3)
  br label %if.end

if.end:                                           ; preds = %if.then, %entry
  ret void
}

; Function Attrs: mustprogress nounwind uwtable
define linkonce_odr dso_local void @_ZNSt8functionIFN2v810MaybeLocalINS0_5ValueEEERKN4node26StartExecutionCallbackInfoEEEC2ERKS9_(ptr noundef nonnull align 8 dereferenceable(32) %this, ptr noundef nonnull align 8 dereferenceable(32) %__x) unnamed_addr #4 comdat align 2 {
entry:
  %this.addr = alloca ptr, align 8
  %__x.addr = alloca ptr, align 8
  store ptr %this, ptr %this.addr, align 8
  store ptr %__x, ptr %__x.addr, align 8
  %this1 = load ptr, ptr %this.addr, align 8
  %0 = getelementptr inbounds i8, ptr %this1, i64 0
  call void @llvm.memset.p0.i64(ptr align 8 %0, i8 0, i64 24, i1 false)
  call void @_ZNSt14_Function_baseC2Ev(ptr noundef nonnull align 8 dereferenceable(24) %this1) #3
  %_M_invoker = getelementptr inbounds %"class.std::function.233", ptr %this1, i32 0, i32 1
  store ptr null, ptr %_M_invoker, align 8
  %1 = load ptr, ptr %__x.addr, align 8
  %call = call noundef zeroext i1 @_ZNKSt8functionIFN2v810MaybeLocalINS0_5ValueEEERKN4node26StartExecutionCallbackInfoEEEcvbEv(ptr noundef nonnull align 8 dereferenceable(32) %1) #3
  br i1 %call, label %if.then, label %if.end

if.then:                                          ; preds = %entry
  %2 = load ptr, ptr %__x.addr, align 8
  %_M_manager = getelementptr inbounds %"class.std::_Function_base", ptr %2, i32 0, i32 1
  %3 = load ptr, ptr %_M_manager, align 8
  %_M_functor = getelementptr inbounds %"class.std::_Function_base", ptr %this1, i32 0, i32 0
  %4 = load ptr, ptr %__x.addr, align 8
  %_M_functor2 = getelementptr inbounds %"class.std::_Function_base", ptr %4, i32 0, i32 0
  %call3 = call noundef zeroext i1 %3(ptr noundef nonnull align 8 dereferenceable(16) %_M_functor, ptr noundef nonnull align 8 dereferenceable(16) %_M_functor2, i32 noundef 2)
  %5 = load ptr, ptr %__x.addr, align 8
  %_M_invoker4 = getelementptr inbounds %"class.std::function.233", ptr %5, i32 0, i32 1
  %6 = load ptr, ptr %_M_invoker4, align 8
  %_M_invoker5 = getelementptr inbounds %"class.std::function.233", ptr %this1, i32 0, i32 1
  store ptr %6, ptr %_M_invoker5, align 8
  %7 = load ptr, ptr %__x.addr, align 8
  %_M_manager6 = getelementptr inbounds %"class.std::_Function_base", ptr %7, i32 0, i32 1
  %8 = load ptr, ptr %_M_manager6, align 8
  %_M_manager7 = getelementptr inbounds %"class.std::_Function_base", ptr %this1, i32 0, i32 1
  store ptr %8, ptr %_M_manager7, align 8
  br label %if.end

if.end:                                           ; preds = %if.then, %entry
  ret void
}

; Function Attrs: mustprogress nounwind uwtable
define internal void @"_ZNSt14_Function_base13_Base_managerIZN4node15LoadEnvironmentEPNS1_11EnvironmentESt17basic_string_viewIcSt11char_traitsIcEEE3$_0E15_M_init_functorIS8_EEvRSt9_Any_dataOT_"(ptr noundef nonnull align 8 dereferenceable(16) %__functor, ptr noundef nonnull align 8 dereferenceable(16) %__f) #4 align 2 {
entry:
  %__functor.addr = alloca ptr, align 8
  %__f.addr = alloca ptr, align 8
  store ptr %__functor, ptr %__functor.addr, align 8
  store ptr %__f, ptr %__f.addr, align 8
  %0 = load ptr, ptr %__functor.addr, align 8
  %1 = load ptr, ptr %__f.addr, align 8
  call void @"_ZNSt14_Function_base13_Base_managerIZN4node15LoadEnvironmentEPNS1_11EnvironmentESt17basic_string_viewIcSt11char_traitsIcEEE3$_0E9_M_createIS8_EEvRSt9_Any_dataOT_St17integral_constantIbLb1EE"(ptr noundef nonnull align 8 dereferenceable(16) %0, ptr noundef nonnull align 8 dereferenceable(16) %1)
  ret void
}

; Function Attrs: mustprogress nounwind uwtable
define internal noundef zeroext i1 @"_ZNSt14_Function_base13_Base_managerIZN4node15LoadEnvironmentEPNS1_11EnvironmentESt17basic_string_viewIcSt11char_traitsIcEEE3$_0E21_M_not_empty_functionIS8_EEbRKT_"(ptr noundef nonnull align 8 dereferenceable(16) %0) #4 align 2 {
entry:
  %.addr = alloca ptr, align 8
  store ptr %0, ptr %.addr, align 8
  ret i1 true
}

; Function Attrs: mustprogress nounwind uwtable
define linkonce_odr dso_local void @_ZNSt14_Function_baseC2Ev(ptr noundef nonnull align 8 dereferenceable(24) %this) unnamed_addr #4 comdat align 2 {
entry:
  %this.addr = alloca ptr, align 8
  store ptr %this, ptr %this.addr, align 8
  %this1 = load ptr, ptr %this.addr, align 8
  %_M_functor = getelementptr inbounds %"class.std::_Function_base", ptr %this1, i32 0, i32 0
  store ptr null, ptr %_M_functor, align 8
  %_M_manager = getelementptr inbounds %"class.std::_Function_base", ptr %this1, i32 0, i32 1
  store ptr null, ptr %_M_manager, align 8
  ret void
}

; Function Attrs: mustprogress nounwind uwtable
define linkonce_odr dso_local void @_ZNSt8functionIFN2v810MaybeLocalINS0_5ValueEEERKN4node26StartExecutionCallbackInfoEEED2Ev(ptr noundef nonnull align 8 dereferenceable(32) %this) unnamed_addr #4 comdat align 2 {
entry:
  %this.addr = alloca ptr, align 8
  store ptr %this, ptr %this.addr, align 8
  %this1 = load ptr, ptr %this.addr, align 8
  call void @_ZNSt14_Function_baseD2Ev(ptr noundef nonnull align 8 dereferenceable(24) %this1) #3
  ret void
}

; Function Attrs: mustprogress nounwind uwtable
define dso_local ptr @_ZN4node15LoadEnvironmentEPNS_11EnvironmentESt8functionIFN2v810MaybeLocalINS3_5ValueEEERKNS_26StartExecutionCallbackInfoEEE(ptr noundef %env, ptr noundef %cb) #4 {
entry:
  %retval = alloca %"class.v8::MaybeLocal", align 8
  %env.addr = alloca ptr, align 8
  %cb.indirect_addr = alloca ptr, align 8
  %agg.tmp = alloca %"class.std::function.233", align 8
  store ptr %env, ptr %env.addr, align 8
  store ptr %cb, ptr %cb.indirect_addr, align 8
  %0 = load ptr, ptr %env.addr, align 8
  call void @_ZN4node11Environment15InitializeLibuvEv(ptr noundef nonnull align 8 dereferenceable(2872) %0)
  %1 = load ptr, ptr %env.addr, align 8
  call void @_ZN4node11Environment21InitializeDiagnosticsEv(ptr noundef nonnull align 8 dereferenceable(2872) %1)
  %2 = load ptr, ptr %env.addr, align 8
  call void @_ZNSt8functionIFN2v810MaybeLocalINS0_5ValueEEERKN4node26StartExecutionCallbackInfoEEEC2ERKS9_(ptr noundef nonnull align 8 dereferenceable(32) %agg.tmp, ptr noundef nonnull align 8 dereferenceable(32) %cb)
  %call = call ptr @_ZN4node14StartExecutionEPNS_11EnvironmentESt8functionIFN2v810MaybeLocalINS3_5ValueEEERKNS_26StartExecutionCallbackInfoEEE(ptr noundef %2, ptr noundef %agg.tmp)
  %coerce.dive = getelementptr inbounds %"class.v8::MaybeLocal", ptr %retval, i32 0, i32 0
  %coerce.dive1 = getelementptr inbounds %"class.v8::Local.2", ptr %coerce.dive, i32 0, i32 0
  %coerce.dive2 = getelementptr inbounds %"class.v8::LocalBase.3", ptr %coerce.dive1, i32 0, i32 0
  %coerce.dive3 = getelementptr inbounds %"class.v8::IndirectHandleBase", ptr %coerce.dive2, i32 0, i32 0
  store ptr %call, ptr %coerce.dive3, align 8
  call void @_ZNSt8functionIFN2v810MaybeLocalINS0_5ValueEEERKN4node26StartExecutionCallbackInfoEEED2Ev(ptr noundef nonnull align 8 dereferenceable(32) %agg.tmp) #3
  %coerce.dive4 = getelementptr inbounds %"class.v8::MaybeLocal", ptr %retval, i32 0, i32 0
  %coerce.dive5 = getelementptr inbounds %"class.v8::Local.2", ptr %coerce.dive4, i32 0, i32 0
  %coerce.dive6 = getelementptr inbounds %"class.v8::LocalBase.3", ptr %coerce.dive5, i32 0, i32 0
  %coerce.dive7 = getelementptr inbounds %"class.v8::IndirectHandleBase", ptr %coerce.dive6, i32 0, i32 0
  %3 = load ptr, ptr %coerce.dive7, align 8
  ret ptr %3
}

; Function Attrs: mustprogress nounwind uwtable
define internal void @"_ZNSt8functionIFN2v810MaybeLocalINS0_5ValueEEERKN4node26StartExecutionCallbackInfoEEEC2IZNS4_15LoadEnvironmentEPNS4_11EnvironmentESt17basic_string_viewIcSt11char_traitsIcEEE3$_0vEEOT_"(ptr noundef nonnull align 8 dereferenceable(32) %this, ptr noundef nonnull align 8 dereferenceable(16) %__f) unnamed_addr #4 align 2 {
entry:
  %this.addr = alloca ptr, align 8
  %__f.addr = alloca ptr, align 8
  store ptr %this, ptr %this.addr, align 8
  store ptr %__f, ptr %__f.addr, align 8
  %this1 = load ptr, ptr %this.addr, align 8
  %0 = getelementptr inbounds i8, ptr %this1, i64 0
  call void @llvm.memset.p0.i64(ptr align 8 %0, i8 0, i64 24, i1 false)
  call void @_ZNSt14_Function_baseC2Ev(ptr noundef nonnull align 8 dereferenceable(24) %this1) #3
  %_M_invoker = getelementptr inbounds %"class.std::function.233", ptr %this1, i32 0, i32 1
  store ptr null, ptr %_M_invoker, align 8
  %1 = load ptr, ptr %__f.addr, align 8
  %call = call noundef zeroext i1 @"_ZNSt14_Function_base13_Base_managerIZN4node15LoadEnvironmentEPNS1_11EnvironmentESt17basic_string_viewIcSt11char_traitsIcEEE3$_0E21_M_not_empty_functionIS8_EEbRKT_"(ptr noundef nonnull align 8 dereferenceable(16) %1) #3
  br i1 %call, label %if.then, label %if.end

if.then:                                          ; preds = %entry
  %_M_functor = getelementptr inbounds %"class.std::_Function_base", ptr %this1, i32 0, i32 0
  %2 = load ptr, ptr %__f.addr, align 8
  call void @"_ZNSt14_Function_base13_Base_managerIZN4node15LoadEnvironmentEPNS1_11EnvironmentESt17basic_string_viewIcSt11char_traitsIcEEE3$_0E15_M_init_functorIS8_EEvRSt9_Any_dataOT_"(ptr noundef nonnull align 8 dereferenceable(16) %_M_functor, ptr noundef nonnull align 8 dereferenceable(16) %2) #3
  %_M_invoker2 = getelementptr inbounds %"class.std::function.233", ptr %this1, i32 0, i32 1
  store ptr @"_ZNSt17_Function_handlerIFN2v810MaybeLocalINS0_5ValueEEERKN4node26StartExecutionCallbackInfoEEZNS4_15LoadEnvironmentEPNS4_11EnvironmentESt17basic_string_viewIcSt11char_traitsIcEEE3$_0E9_M_invokeERKSt9_Any_dataS7_", ptr %_M_invoker2, align 8
  %_M_manager = getelementptr inbounds %"class.std::_Function_base", ptr %this1, i32 0, i32 1
  store ptr @"_ZNSt17_Function_handlerIFN2v810MaybeLocalINS0_5ValueEEERKN4node26StartExecutionCallbackInfoEEZNS4_15LoadEnvironmentEPNS4_11EnvironmentESt17basic_string_viewIcSt11char_traitsIcEEE3$_0E10_M_managerERSt9_Any_dataRKSH_St18_Manager_operation", ptr %_M_manager, align 8
  br label %if.end

if.end:                                           ; preds = %if.then, %entry
  ret void
}

; Function Attrs: mustprogress nounwind uwtable
define linkonce_odr dso_local noundef ptr @_ZNKSt17basic_string_viewIcSt11char_traitsIcEE4dataEv(ptr noundef nonnull align 8 dereferenceable(16) %this) #4 comdat align 2 {
entry:
  %this.addr = alloca ptr, align 8
  store ptr %this, ptr %this.addr, align 8
  %this1 = load ptr, ptr %this.addr, align 8
  %_M_str = getelementptr inbounds %"class.std::basic_string_view", ptr %this1, i32 0, i32 1
  %0 = load ptr, ptr %_M_str, align 8
  ret ptr %0
}

; Function Attrs: mustprogress nounwind uwtable
define dso_local ptr @_ZN4node15LoadEnvironmentEPNS_11EnvironmentESt17basic_string_viewIcSt11char_traitsIcEE(ptr noundef %env, i64 %main_script_source_utf8.coerce0, ptr %main_script_source_utf8.coerce1) #4 {
entry:
  %retval = alloca %"class.v8::MaybeLocal", align 8
  %main_script_source_utf8 = alloca %"class.std::basic_string_view", align 8
  %env.addr = alloca ptr, align 8
  %agg.tmp = alloca %"class.std::function.233", align 8
  %ref.tmp = alloca %class.anon, align 8
  %0 = getelementptr inbounds { i64, ptr }, ptr %main_script_source_utf8, i32 0, i32 0
  store i64 %main_script_source_utf8.coerce0, ptr %0, align 8
  %1 = getelementptr inbounds { i64, ptr }, ptr %main_script_source_utf8, i32 0, i32 1
  store ptr %main_script_source_utf8.coerce1, ptr %1, align 8
  store ptr %env, ptr %env.addr, align 8
  br label %do.body

do.body:                                          ; preds = %entry
  %call = call noundef ptr @_ZNKSt17basic_string_viewIcSt11char_traitsIcEE4dataEv(ptr noundef nonnull align 8 dereferenceable(16) %main_script_source_utf8) #3
  %cmp = icmp ne ptr %call, null
  %lnot = xor i1 %cmp, true
  %lnot1 = xor i1 %lnot, true
  %lnot2 = xor i1 %lnot1, true
  br i1 %lnot2, label %if.then, label %if.end

if.then:                                          ; preds = %do.body
  br label %do.body3

do.body3:                                         ; preds = %if.then
  call void @_ZN4node6AssertERKNS_13AssertionInfoE(ptr noundef nonnull align 8 dereferenceable(24) @_ZZN4node15LoadEnvironmentEPNS_11EnvironmentESt17basic_string_viewIcSt11char_traitsIcEEE4args)
  call void @abort() #16
  unreachable

do.end:                                           ; No predecessors!
  br label %if.end

if.end:                                           ; preds = %do.end, %do.body
  br label %do.end4

do.end4:                                          ; preds = %if.end
  %2 = load ptr, ptr %env.addr, align 8
  %3 = getelementptr inbounds %class.anon, ptr %ref.tmp, i32 0, i32 0
  store ptr %env.addr, ptr %3, align 8
  %4 = getelementptr inbounds %class.anon, ptr %ref.tmp, i32 0, i32 1
  store ptr %main_script_source_utf8, ptr %4, align 8
  call void @"_ZNSt8functionIFN2v810MaybeLocalINS0_5ValueEEERKN4node26StartExecutionCallbackInfoEEEC2IZNS4_15LoadEnvironmentEPNS4_11EnvironmentESt17basic_string_viewIcSt11char_traitsIcEEE3$_0vEEOT_"(ptr noundef nonnull align 8 dereferenceable(32) %agg.tmp, ptr noundef nonnull align 8 dereferenceable(16) %ref.tmp) #3
  %call5 = call ptr @_ZN4node15LoadEnvironmentEPNS_11EnvironmentESt8functionIFN2v810MaybeLocalINS3_5ValueEEERKNS_26StartExecutionCallbackInfoEEE(ptr noundef %2, ptr noundef %agg.tmp)
  %coerce.dive = getelementptr inbounds %"class.v8::MaybeLocal", ptr %retval, i32 0, i32 0
  %coerce.dive6 = getelementptr inbounds %"class.v8::Local.2", ptr %coerce.dive, i32 0, i32 0
  %coerce.dive7 = getelementptr inbounds %"class.v8::LocalBase.3", ptr %coerce.dive6, i32 0, i32 0
  %coerce.dive8 = getelementptr inbounds %"class.v8::IndirectHandleBase", ptr %coerce.dive7, i32 0, i32 0
  store ptr %call5, ptr %coerce.dive8, align 8
  call void @_ZNSt8functionIFN2v810MaybeLocalINS0_5ValueEEERKN4node26StartExecutionCallbackInfoEEED2Ev(ptr noundef nonnull align 8 dereferenceable(32) %agg.tmp) #3
  %coerce.dive9 = getelementptr inbounds %"class.v8::MaybeLocal", ptr %retval, i32 0, i32 0
  %coerce.dive10 = getelementptr inbounds %"class.v8::Local.2", ptr %coerce.dive9, i32 0, i32 0
  %coerce.dive11 = getelementptr inbounds %"class.v8::LocalBase.3", ptr %coerce.dive10, i32 0, i32 0
  %coerce.dive12 = getelementptr inbounds %"class.v8::IndirectHandleBase", ptr %coerce.dive11, i32 0, i32 0
  %5 = load ptr, ptr %coerce.dive12, align 8
  ret ptr %5
}