; Function Attrs: mustprogress nounwind uwtable
define dso_local ptr @_ZN4node15LoadEnvironmentEPNS_11EnvironmentESt17basic_string_viewIcSt11char_traitsIcEE(ptr noundef %env, i64 %main_script_source_utf8.coerce0, ptr %main_script_source_utf8.coerce1) local_unnamed_addr #3 {
entry:
  %agg.tmp.i = alloca %"class.std::function.233", align 8
  %main_script_source_utf8 = alloca %"class.std::basic_string_view", align 8
  %env.addr = alloca ptr, align 8
  store i64 %main_script_source_utf8.coerce0, ptr %main_script_source_utf8, align 8
  %0 = getelementptr inbounds i8, ptr %main_script_source_utf8, i64 8
  store ptr %main_script_source_utf8.coerce1, ptr %0, align 8
  store ptr %env, ptr %env.addr, align 8
  %cmp.not = icmp eq ptr %main_script_source_utf8.coerce1, null
  br i1 %cmp.not, label %do.body3, label %_ZNSt8functionIFN2v810MaybeLocalINS0_5ValueEEERKN4node26StartExecutionCallbackInfoEEEC2ERKS9_.exit.i

do.body3:                                         ; preds = %entry
  tail call void @_ZN4node6AssertERKNS_13AssertionInfoE(ptr noundef nonnull align 8 dereferenceable(24) @_ZZN4node15LoadEnvironmentEPNS_11EnvironmentESt17basic_string_viewIcSt11char_traitsIcEEE4args) #12
  tail call void @abort() #20
  unreachable

_ZNSt8functionIFN2v810MaybeLocalINS0_5ValueEEERKN4node26StartExecutionCallbackInfoEEEC2ERKS9_.exit.i: ; preds = %entry
  call void @llvm.lifetime.start.p0(i64 32, ptr nonnull %agg.tmp.i)
  tail call void @_ZN4node11Environment15InitializeLibuvEv(ptr noundef nonnull align 8 dereferenceable(2872) %env) #12
  tail call void @_ZN4node11Environment21InitializeDiagnosticsEv(ptr noundef nonnull align 8 dereferenceable(2872) %env) #12
  %_M_invoker.i.i = getelementptr inbounds i8, ptr %agg.tmp.i, i64 24
  %_M_manager.i.i.i = getelementptr inbounds i8, ptr %agg.tmp.i, i64 16
  store ptr %env.addr, ptr %agg.tmp.i, align 8
  %agg.tmp.sroa.2.0.agg.tmp.i.sroa_idx = getelementptr inbounds i8, ptr %agg.tmp.i, i64 8
  store ptr %main_script_source_utf8, ptr %agg.tmp.sroa.2.0.agg.tmp.i.sroa_idx, align 8
  store ptr @"_ZNSt17_Function_handlerIFN2v810MaybeLocalINS0_5ValueEEERKN4node26StartExecutionCallbackInfoEEZNS4_15LoadEnvironmentEPNS4_11EnvironmentESt17basic_string_viewIcSt11char_traitsIcEEE3$_0E9_M_invokeERKSt9_Any_dataS7_", ptr %_M_invoker.i.i, align 8
  store ptr @"_ZNSt17_Function_handlerIFN2v810MaybeLocalINS0_5ValueEEERKN4node26StartExecutionCallbackInfoEEZNS4_15LoadEnvironmentEPNS4_11EnvironmentESt17basic_string_viewIcSt11char_traitsIcEEE3$_0E10_M_managerERSt9_Any_dataRKSH_St18_Manager_operation", ptr %_M_manager.i.i.i, align 8
  %call.i = call ptr @_ZN4node14StartExecutionEPNS_11EnvironmentESt8functionIFN2v810MaybeLocalINS3_5ValueEEERKNS_26StartExecutionCallbackInfoEEE(ptr noundef nonnull %env, ptr noundef nonnull %agg.tmp.i) #12
  %1 = load ptr, ptr %_M_manager.i.i.i, align 8
  %tobool.not.i.i.i = icmp eq ptr %1, null
  br i1 %tobool.not.i.i.i, label %_ZNSt8functionIFN2v810MaybeLocalINS0_5ValueEEERKN4node26StartExecutionCallbackInfoEEED2Ev.exit, label %if.then.i.i.i

if.then.i.i.i:                                    ; preds = %_ZNSt8functionIFN2v810MaybeLocalINS0_5ValueEEERKN4node26StartExecutionCallbackInfoEEEC2ERKS9_.exit.i
  %call.i.i.i = call noundef zeroext i1 %1(ptr noundef nonnull align 8 dereferenceable(16) %agg.tmp.i, ptr noundef nonnull align 8 dereferenceable(16) %agg.tmp.i, i32 noundef 3) #12
  br label %_ZNSt8functionIFN2v810MaybeLocalINS0_5ValueEEERKN4node26StartExecutionCallbackInfoEEED2Ev.exit

_ZNSt8functionIFN2v810MaybeLocalINS0_5ValueEEERKN4node26StartExecutionCallbackInfoEEED2Ev.exit: ; preds = %_ZNSt8functionIFN2v810MaybeLocalINS0_5ValueEEERKN4node26StartExecutionCallbackInfoEEEC2ERKS9_.exit.i, %if.then.i.i.i
  call void @llvm.lifetime.end.p0(i64 32, ptr nonnull %agg.tmp.i)
  ret ptr %call.i
}